target datalayout = "e-m:e-p270:32:32-p271:32:32-p272:64:64-i64:64-i128:128-f80:128-n8:16:32:64-S128"
target triple = "x86_64-pc-linux-gnu"

%struct._value_string_ext = type { ptr, i32, i32, ptr, ptr }
%struct._packet_info = type { ptr, ptr, i32, i32, %struct.nstime_t, %struct.nstime_t, %struct.nstime_t, i8, ptr, ptr, ptr, ptr, %struct._address, %struct._address, %struct._address, %struct._address, %struct._address, %struct._address, i32, ptr, i8, [3 x i8], %struct.anon, i32, i32, i32, i32, ptr, i8, ptr, ptr, i16, i16, i32, i32, i16, i32, i32, ptr, ptr, ptr, i8, i8, i16, i16, i16, i32, i16, i16, ptr, ptr, ptr, ptr, ptr, i32, i32 }
%struct.nstime_t = type { i64, i32 }
%struct._address = type { i32, i32, ptr, ptr }
%struct.anon = type { i8, [3 x i8] }
%struct._proto_node = type { ptr, ptr, ptr, ptr, ptr, ptr, ptr }
%struct.field_info = type { ptr, i32, i32, i32, i32, i32, i32, ptr, ptr, ptr, i32, i32 }

@hf_simulcrypt_header = internal global i32 0, align 4
@hf_simulcrypt_version = internal global i32 0, align 4
@hf_simulcrypt_message_type = internal global i32 0, align 4
@messagetypenames_ext = internal global %struct._value_string_ext { ptr @_try_val_to_str_ext_init, i32 0, i32 55, ptr @messagetypenames, ptr @.str.177 }, align 8
@hf_simulcrypt_interface = internal global i32 0, align 4
@hf_simulcrypt_message_length = internal global i32 0, align 4
@hf_simulcrypt_message = internal global i32 0, align 4
@ett_simulcrypt = internal global i32 0, align 4
@ett_simulcrypt_header = internal global i32 0, align 4
@ett_simulcrypt_message = internal global i32 0, align 4
@.str.170 = private unnamed_addr constant [11 x i8] c"SIMULCRYPT\00", align 1
@proto_simulcrypt = internal global i32 0, align 4
@.str.352 = private unnamed_addr constant [23 x i8] c"%d > %d Info Type:[%s]\00", align 1
@.str.353 = private unnamed_addr constant [20 x i8] c"Unknown Type:0x%02x\00", align 1
@.str.354 = private unnamed_addr constant [16 x i8] c", Interface: %s\00", align 1
@.str.355 = private unnamed_addr constant [17 x i8] c"Unknown (0x%02x)\00", align 1
@.str.356 = private unnamed_addr constant [13 x i8] c", Length: %s\00", align 1
@.str.357 = private unnamed_addr constant [8 x i8] c"5 bytes\00", align 1
@.str.358 = private unnamed_addr constant [3 x i8] c"%s\00", align 1
@.str.359 = private unnamed_addr constant [8 x i8] c"Unknown\00", align 1
@.str.360 = private unnamed_addr constant [27 x i8] c" containing TLV parameters\00", align 1
@.str.361 = private unnamed_addr constant [21 x i8] c", Length: %d (bytes)\00", align 1

; Function Attrs: inlinehint nounwind null_pointer_is_valid sspstrong uwtable
define internal void @proto_item_set_generated(ptr noundef %0) #4 {
  %2 = alloca ptr, align 8
  store ptr %0, ptr %2, align 8
  %3 = load ptr, ptr %2, align 8
  %4 = icmp ne ptr %3, null
  br i1 %4, label %5, label %24

5:                                                ; preds = %1
  br label %6

6:                                                ; preds = %5
  %7 = load ptr, ptr %2, align 8
  %8 = getelementptr inbounds nuw %struct._proto_node, ptr %7, i32 0, i32 5
  %9 = load ptr, ptr %8, align 8
  %10 = icmp ne ptr %9, null
  br i1 %10, label %11, label %22

11:                                               ; preds = %6
  %12 = load ptr, ptr %2, align 8
  %13 = getelementptr inbounds nuw %struct._proto_node, ptr %12, i32 0, i32 5
  %14 = load ptr, ptr %13, align 8
  %15 = getelementptr inbounds nuw %struct.field_info, ptr %14, i32 0, i32 6
  %16 = load i32, ptr %15, align 4
  %17 = or i32 %16, 2
  %18 = load ptr, ptr %2, align 8
  %19 = getelementptr inbounds nuw %struct._proto_node, ptr %18, i32 0, i32 5
  %20 = load ptr, ptr %19, align 8
  %21 = getelementptr inbounds nuw %struct.field_info, ptr %20, i32 0, i32 6
  store i32 %17, ptr %21, align 4
  br label %22

22:                                               ; preds = %11, %6
  br label %23

23:                                               ; preds = %22
  br label %24

24:                                               ; preds = %23, %1
  ret void
}

; Function Attrs: nounwind null_pointer_is_valid sspstrong uwtable
define internal zeroext i16 @get_interface(i16 noundef zeroext %0) #3 {
  %2 = alloca i16, align 2
  %3 = alloca i16, align 2
  %4 = alloca i32, align 4
  %5 = alloca i32, align 4
  store i16 %0, ptr %3, align 2
  call void @llvm.lifetime.start.p0(i64 4, ptr %4) #5
  %6 = load i16, ptr %3, align 2
  %7 = zext i16 %6 to i32
  %8 = icmp sge i32 %7, 32768
  br i1 %8, label %9, label %10

9:                                                ; preds = %1
  store i16 8, ptr %2, align 2
  store i32 1, ptr %5, align 4
  br label %25

10:                                               ; preds = %1
  %11 = load i16, ptr %3, align 2
  %12 = zext i16 %11 to i32
  %13 = and i32 %12, 65520
  switch i32 %13, label %21 [
    i32 0, label %14
    i32 256, label %14
    i32 512, label %14
    i32 16, label %15
    i32 272, label %15
    i32 528, label %15
    i32 784, label %16
    i32 800, label %16
    i32 1024, label %17
    i32 1040, label %18
    i32 1056, label %18
    i32 1072, label %19
    i32 1088, label %20
  ]

14:                                               ; preds = %10, %10, %10
  store i32 1, ptr %4, align 4
  br label %22

15:                                               ; preds = %10, %10, %10
  store i32 2, ptr %4, align 4
  br label %22

16:                                               ; preds = %10, %10
  store i32 3, ptr %4, align 4
  br label %22

17:                                               ; preds = %10
  store i32 4, ptr %4, align 4
  br label %22

18:                                               ; preds = %10, %10
  store i32 5, ptr %4, align 4
  br label %22

19:                                               ; preds = %10
  store i32 6, ptr %4, align 4
  br label %22

20:                                               ; preds = %10
  store i32 7, ptr %4, align 4
  br label %22

21:                                               ; preds = %10
  store i32 0, ptr %4, align 4
  br label %22

22:                                               ; preds = %21, %20, %19, %18, %17, %16, %15, %14
  %23 = load i32, ptr %4, align 4
  %24 = trunc i32 %23 to i16
  store i16 %24, ptr %2, align 2
  store i32 1, ptr %5, align 4
  br label %25

25:                                               ; preds = %22, %9
  call void @llvm.lifetime.end.p0(i64 4, ptr %4) #5
  %26 = load i16, ptr %2, align 2
  ret i16 %26
}

; Function Attrs: null_pointer_is_valid sspstrong uwtable
define internal i32 @dissect_simulcrypt_message(ptr noundef %0, ptr noundef %1, ptr noundef %2, ptr noundef %3) #0 {
  %5 = alloca ptr, align 8
  %6 = alloca ptr, align 8
  %7 = alloca ptr, align 8
  %8 = alloca ptr, align 8
  %9 = alloca ptr, align 8
  %10 = alloca ptr, align 8
  %11 = alloca ptr, align 8
  %12 = alloca ptr, align 8
  %13 = alloca i16, align 2
  %14 = alloca i16, align 2
  %15 = alloca i32, align 4
  %16 = alloca i32, align 4
  store ptr %0, ptr %5, align 8
  store ptr %1, ptr %6, align 8
  store ptr %2, ptr %7, align 8
  store ptr %3, ptr %8, align 8
  call void @llvm.lifetime.start.p0(i64 8, ptr %9) #5
  call void @llvm.lifetime.start.p0(i64 8, ptr %10) #5
  call void @llvm.lifetime.start.p0(i64 8, ptr %11) #5
  call void @llvm.lifetime.start.p0(i64 8, ptr %12) #5
  call void @llvm.lifetime.start.p0(i64 2, ptr %13) #5
  call void @llvm.lifetime.start.p0(i64 2, ptr %14) #5
  %17 = load ptr, ptr %6, align 8
  %18 = getelementptr inbounds nuw %struct._packet_info, ptr %17, i32 0, i32 1
  %19 = load ptr, ptr %18, align 8
  call void @col_set_str(ptr noundef %19, i32 noundef 35, ptr noundef @.str.170)
  %20 = load ptr, ptr %6, align 8
  %21 = getelementptr inbounds nuw %struct._packet_info, ptr %20, i32 0, i32 1
  %22 = load ptr, ptr %21, align 8
  call void @col_clear(ptr noundef %22, i32 noundef 25)
  %23 = load ptr, ptr %5, align 8
  %24 = call zeroext i16 @tvb_get_ntohs(ptr noundef %23, i32 noundef 1)
  store i16 %24, ptr %13, align 2
  %25 = load i16, ptr %13, align 2
  %26 = call zeroext i16 @get_interface(i16 noundef zeroext %25)
  store i16 %26, ptr %14, align 2
  %27 = load ptr, ptr %6, align 8
  %28 = getelementptr inbounds nuw %struct._packet_info, ptr %27, i32 0, i32 1
  %29 = load ptr, ptr %28, align 8
  %30 = load ptr, ptr %6, align 8
  %31 = getelementptr inbounds nuw %struct._packet_info, ptr %30, i32 0, i32 24
  %32 = load i32, ptr %31, align 4
  %33 = load ptr, ptr %6, align 8
  %34 = getelementptr inbounds nuw %struct._packet_info, ptr %33, i32 0, i32 25
  %35 = load i32, ptr %34, align 8
  %36 = load i16, ptr %13, align 2
  %37 = zext i16 %36 to i32
  %38 = call ptr @val_to_str_ext(i32 noundef %37, ptr noundef @messagetypenames_ext, ptr noundef @.str.353)
  call void (ptr, i32, ptr, ...) @col_add_fstr(ptr noundef %29, i32 noundef 25, ptr noundef @.str.352, i32 noundef %32, i32 noundef %35, ptr noundef %38)
  %39 = load ptr, ptr %7, align 8
  %40 = icmp ne ptr %39, null
  br i1 %40, label %41, label %118

41:                                               ; preds = %4
  call void @llvm.lifetime.start.p0(i64 4, ptr %15) #5
  store i32 0, ptr %15, align 4
  call void @llvm.lifetime.start.p0(i64 4, ptr %16) #5
  %42 = load ptr, ptr %7, align 8
  %43 = load i32, ptr @proto_simulcrypt, align 4
  %44 = load ptr, ptr %5, align 8
  %45 = call ptr @proto_tree_add_item(ptr noundef %42, i32 noundef %43, ptr noundef %44, i32 noundef 0, i32 noundef -1, i32 noundef 0)
  store ptr %45, ptr %9, align 8
  %46 = load ptr, ptr %9, align 8
  %47 = load i32, ptr @ett_simulcrypt, align 4
  %48 = call ptr @proto_item_add_subtree(ptr noundef %46, i32 noundef %47)
  store ptr %48, ptr %10, align 8
  %49 = load ptr, ptr %9, align 8
  %50 = load i16, ptr %14, align 2
  %51 = zext i16 %50 to i32
  %52 = call ptr @val_to_str(i32 noundef %51, ptr noundef @interfacenames, ptr noundef @.str.355)
  call void (ptr, ptr, ...) @proto_item_append_text(ptr noundef %49, ptr noundef @.str.354, ptr noundef %52)
  %53 = load ptr, ptr %10, align 8
  %54 = load i32, ptr @hf_simulcrypt_header, align 4
  %55 = load ptr, ptr %5, align 8
  %56 = load i32, ptr %15, align 4
  %57 = call ptr @proto_tree_add_item(ptr noundef %53, i32 noundef %54, ptr noundef %55, i32 noundef %56, i32 noundef 5, i32 noundef 0)
  store ptr %57, ptr %9, align 8
  %58 = load ptr, ptr %9, align 8
  %59 = load i32, ptr @ett_simulcrypt_header, align 4
  %60 = call ptr @proto_item_add_subtree(ptr noundef %58, i32 noundef %59)
  store ptr %60, ptr %11, align 8
  %61 = load ptr, ptr %11, align 8
  call void (ptr, ptr, ...) @proto_item_append_text(ptr noundef %61, ptr noundef @.str.356, ptr noundef @.str.357)
  %62 = load ptr, ptr %11, align 8
  %63 = load i32, ptr @hf_simulcrypt_version, align 4
  %64 = load ptr, ptr %5, align 8
  %65 = load i32, ptr %15, align 4
  %66 = call ptr @proto_tree_add_item(ptr noundef %62, i32 noundef %63, ptr noundef %64, i32 noundef %65, i32 noundef 1, i32 noundef 0)
  %67 = load i32, ptr %15, align 4
  %68 = add i32 %67, 1
  store i32 %68, ptr %15, align 4
  %69 = load ptr, ptr %11, align 8
  %70 = load i32, ptr @hf_simulcrypt_message_type, align 4
  %71 = load ptr, ptr %5, align 8
  %72 = load i32, ptr %15, align 4
  %73 = call ptr @proto_tree_add_item(ptr noundef %69, i32 noundef %70, ptr noundef %71, i32 noundef %72, i32 noundef 2, i32 noundef 0)
  %74 = load ptr, ptr %11, align 8
  %75 = load i32, ptr @hf_simulcrypt_interface, align 4
  %76 = load ptr, ptr %5, align 8
  %77 = load i32, ptr %15, align 4
  %78 = load i16, ptr %14, align 2
  %79 = zext i16 %78 to i32
  %80 = load i16, ptr %14, align 2
  %81 = zext i16 %80 to i32
  %82 = call ptr @val_to_str_const(i32 noundef %81, ptr noundef @interfacenames, ptr noundef @.str.359)
  %83 = call ptr (ptr, i32, ptr, i32, i32, i32, ptr, ...) @proto_tree_add_uint_format_value(ptr noundef %74, i32 noundef %75, ptr noundef %76, i32 noundef %77, i32 noundef 2, i32 noundef %79, ptr noundef @.str.358, ptr noundef %82)
  store ptr %83, ptr %9, align 8
  %84 = load ptr, ptr %9, align 8
  call void @proto_item_set_generated(ptr noundef %84)
  %85 = load i32, ptr %15, align 4
  %86 = add i32 %85, 2
  store i32 %86, ptr %15, align 4
  %87 = load ptr, ptr %11, align 8
  %88 = load i32, ptr @hf_simulcrypt_message_length, align 4
  %89 = load ptr, ptr %5, align 8
  %90 = load i32, ptr %15, align 4
  %91 = call ptr @proto_tree_add_item(ptr noundef %87, i32 noundef %88, ptr noundef %89, i32 noundef %90, i32 noundef 2, i32 noundef 0)
  %92 = load ptr, ptr %5, align 8
  %93 = load i32, ptr %15, align 4
  %94 = call zeroext i16 @tvb_get_ntohs(ptr noundef %92, i32 noundef %93)
  %95 = zext i16 %94 to i32
  store i32 %95, ptr %16, align 4
  %96 = load i32, ptr %15, align 4
  %97 = add i32 %96, 2
  store i32 %97, ptr %15, align 4
  %98 = load ptr, ptr %10, align 8
  %99 = load i32, ptr @hf_simulcrypt_message, align 4
  %100 = load ptr, ptr %5, align 8
  %101 = load i32, ptr %15, align 4
  %102 = call ptr @proto_tree_add_item(ptr noundef %98, i32 noundef %99, ptr noundef %100, i32 noundef %101, i32 noundef -1, i32 noundef 0)
  store ptr %102, ptr %9, align 8
  %103 = load ptr, ptr %9, align 8
  %104 = load i32, ptr @ett_simulcrypt_message, align 4
  %105 = call ptr @proto_item_add_subtree(ptr noundef %103, i32 noundef %104)
  store ptr %105, ptr %12, align 8
  %106 = load ptr, ptr %12, align 8
  call void (ptr, ptr, ...) @proto_item_append_text(ptr noundef %106, ptr noundef @.str.360)
  %107 = load ptr, ptr %12, align 8
  %108 = load i32, ptr %16, align 4
  call void (ptr, ptr, ...) @proto_item_append_text(ptr noundef %107, ptr noundef @.str.361, i32 noundef %108)
  %109 = load ptr, ptr %12, align 8
  %110 = load ptr, ptr %9, align 8
  %111 = load ptr, ptr %6, align 8
  %112 = load ptr, ptr %5, align 8
  %113 = load ptr, ptr %7, align 8
  %114 = load i32, ptr %15, align 4
  %115 = load i32, ptr %16, align 4
  %116 = add i32 %115, 5
  %117 = load i16, ptr %14, align 2
  call void @dissect_simulcrypt_data(ptr noundef %109, ptr noundef %110, ptr noundef %111, ptr noundef %112, ptr noundef %113, i32 noundef %114, i32 noundef %116, i16 noundef zeroext %117, i1 noundef zeroext false)
  call void @llvm.lifetime.end.p0(i64 4, ptr %16) #5
  call void @llvm.lifetime.end.p0(i64 4, ptr %15) #5
  br label %118

118:                                              ; preds = %41, %4
  %119 = load ptr, ptr %5, align 8
  %120 = call i32 @tvb_captured_length(ptr noundef %119)
  call void @llvm.lifetime.end.p0(i64 2, ptr %14) #5
  call void @llvm.lifetime.end.p0(i64 2, ptr %13) #5
  call void @llvm.lifetime.end.p0(i64 8, ptr %12) #5
  call void @llvm.lifetime.end.p0(i64 8, ptr %11) #5
  call void @llvm.lifetime.end.p0(i64 8, ptr %10) #5
  call void @llvm.lifetime.end.p0(i64 8, ptr %9) #5
  ret i32 %120
}