; Function Attrs: null_pointer_is_valid sspstrong uwtable
define internal i32 @dissect_simulcrypt_message(ptr noundef %0, ptr noundef %1, ptr noundef %2, ptr readnone captures(none) %3) #0 {
  %5 = getelementptr inbounds nuw i8, ptr %1, i64 8
  %6 = load ptr, ptr %5, align 8
  tail call void @col_set_str(ptr noundef %6, i32 noundef 35, ptr noundef nonnull @.str.170)
  %7 = load ptr, ptr %5, align 8
  tail call void @col_clear(ptr noundef %7, i32 noundef 25)
  %8 = tail call zeroext i16 @tvb_get_ntohs(ptr noundef %0, i32 noundef 1)
  %9 = icmp slt i16 %8, 0
  br i1 %9, label %get_interface.exit, label %10

10:                                               ; preds = %4
  %11 = and i16 %8, 32752
  switch i16 %11, label %18 [
    i16 0, label %get_interface.exit
    i16 256, label %get_interface.exit
    i16 512, label %get_interface.exit
    i16 16, label %12
    i16 272, label %12
    i16 528, label %12
    i16 784, label %13
    i16 800, label %13
    i16 1024, label %14
    i16 1040, label %15
    i16 1056, label %15
    i16 1072, label %16
    i16 1088, label %17
  ]

12:                                               ; preds = %10, %10, %10
  br label %get_interface.exit

13:                                               ; preds = %10, %10
  br label %get_interface.exit

14:                                               ; preds = %10
  br label %get_interface.exit

15:                                               ; preds = %10, %10
  br label %get_interface.exit

16:                                               ; preds = %10
  br label %get_interface.exit

17:                                               ; preds = %10
  br label %get_interface.exit

18:                                               ; preds = %10
  br label %get_interface.exit

get_interface.exit:                               ; preds = %4, %10, %10, %10, %12, %13, %14, %15, %16, %17, %18
  %.04.i = phi i16 [ 8, %4 ], [ 0, %18 ], [ 7, %17 ], [ 6, %16 ], [ 5, %15 ], [ 4, %14 ], [ 3, %13 ], [ 2, %12 ], [ 1, %10 ], [ 1, %10 ], [ 1, %10 ]
  %19 = load ptr, ptr %5, align 8
  %20 = getelementptr inbounds nuw i8, ptr %1, i64 284
  %21 = load i32, ptr %20, align 4
  %22 = getelementptr inbounds nuw i8, ptr %1, i64 288
  %23 = load i32, ptr %22, align 8
  %24 = zext i16 %8 to i32
  %25 = tail call ptr @val_to_str_ext(i32 noundef %24, ptr noundef nonnull @messagetypenames_ext, ptr noundef nonnull @.str.353)
  tail call void (ptr, i32, ptr, ...) @col_add_fstr(ptr noundef %19, i32 noundef 25, ptr noundef nonnull @.str.352, i32 noundef %21, i32 noundef %23, ptr noundef %25)
  %.not = icmp eq ptr %2, null
  br i1 %.not, label %60, label %26

26:                                               ; preds = %get_interface.exit
  %27 = load i32, ptr @proto_simulcrypt, align 4
  %28 = tail call ptr @proto_tree_add_item(ptr noundef nonnull %2, i32 noundef %27, ptr noundef %0, i32 noundef 0, i32 noundef -1, i32 noundef 0)
  %29 = load i32, ptr @ett_simulcrypt, align 4
  %30 = tail call ptr @proto_item_add_subtree(ptr noundef %28, i32 noundef %29)
  %31 = zext nneg i16 %.04.i to i32
  %32 = tail call ptr @val_to_str(i32 noundef %31, ptr noundef nonnull @interfacenames, ptr noundef nonnull @.str.355)
  tail call void (ptr, ptr, ...) @proto_item_append_text(ptr noundef %28, ptr noundef nonnull @.str.354, ptr noundef %32)
  %33 = load i32, ptr @hf_simulcrypt_header, align 4
  %34 = tail call ptr @proto_tree_add_item(ptr noundef %30, i32 noundef %33, ptr noundef %0, i32 noundef 0, i32 noundef 5, i32 noundef 0)
  %35 = load i32, ptr @ett_simulcrypt_header, align 4
  %36 = tail call ptr @proto_item_add_subtree(ptr noundef %34, i32 noundef %35)
  tail call void (ptr, ptr, ...) @proto_item_append_text(ptr noundef %36, ptr noundef nonnull @.str.356, ptr noundef nonnull @.str.357)
  %37 = load i32, ptr @hf_simulcrypt_version, align 4
  %38 = tail call ptr @proto_tree_add_item(ptr noundef %36, i32 noundef %37, ptr noundef %0, i32 noundef 0, i32 noundef 1, i32 noundef 0)
  %39 = load i32, ptr @hf_simulcrypt_message_type, align 4
  %40 = tail call ptr @proto_tree_add_item(ptr noundef %36, i32 noundef %39, ptr noundef %0, i32 noundef 1, i32 noundef 2, i32 noundef 0)
  %41 = load i32, ptr @hf_simulcrypt_interface, align 4
  %42 = tail call ptr @val_to_str_const(i32 noundef %31, ptr noundef nonnull @interfacenames, ptr noundef nonnull @.str.359)
  %43 = tail call ptr (ptr, i32, ptr, i32, i32, i32, ptr, ...) @proto_tree_add_uint_format_value(ptr noundef %36, i32 noundef %41, ptr noundef %0, i32 noundef 1, i32 noundef 2, i32 noundef %31, ptr noundef nonnull @.str.358, ptr noundef %42)
  %.not.i = icmp eq ptr %43, null
  br i1 %.not.i, label %proto_item_set_generated.exit, label %44

44:                                               ; preds = %26
  %45 = getelementptr inbounds nuw i8, ptr %43, i64 40
  %46 = load ptr, ptr %45, align 8
  %.not5.i = icmp eq ptr %46, null
  br i1 %.not5.i, label %proto_item_set_generated.exit, label %47

47:                                               ; preds = %44
  %48 = getelementptr inbounds nuw i8, ptr %46, i64 28
  %49 = load i32, ptr %48, align 4
  %50 = or i32 %49, 2
  store i32 %50, ptr %48, align 4
  br label %proto_item_set_generated.exit

proto_item_set_generated.exit:                    ; preds = %26, %44, %47
  %51 = load i32, ptr @hf_simulcrypt_message_length, align 4
  %52 = tail call ptr @proto_tree_add_item(ptr noundef %36, i32 noundef %51, ptr noundef %0, i32 noundef 3, i32 noundef 2, i32 noundef 0)
  %53 = tail call zeroext i16 @tvb_get_ntohs(ptr noundef %0, i32 noundef 3)
  %54 = zext i16 %53 to i32
  %55 = load i32, ptr @hf_simulcrypt_message, align 4
  %56 = tail call ptr @proto_tree_add_item(ptr noundef %30, i32 noundef %55, ptr noundef %0, i32 noundef 5, i32 noundef -1, i32 noundef 0)
  %57 = load i32, ptr @ett_simulcrypt_message, align 4
  %58 = tail call ptr @proto_item_add_subtree(ptr noundef %56, i32 noundef %57)
  tail call void (ptr, ptr, ...) @proto_item_append_text(ptr noundef %58, ptr noundef nonnull @.str.360)
  tail call void (ptr, ptr, ...) @proto_item_append_text(ptr noundef %58, ptr noundef nonnull @.str.361, i32 noundef %54)
  %59 = add nuw nsw i32 %54, 5
  tail call fastcc void @dissect_simulcrypt_data(ptr noundef %58, ptr noundef %1, ptr noundef %0, ptr noundef nonnull %2, i32 noundef 5, i32 noundef %59, i16 noundef zeroext %.04.i, i1 noundef zeroext false)
  br label %60

60:                                               ; preds = %proto_item_set_generated.exit, %get_interface.exit
  %61 = tail call i32 @tvb_captured_length(ptr noundef %0)
  ret i32 %61
}